target datalayout = "e-m:e-p270:32:32-p271:32:32-p272:64:64-i64:64-i128:128-f80:128-n8:16:32:64-S128"
target triple = "x86_64-pc-linux-gnu"

%struct.auth_ops_t = type { ptr, ptr, ptr, ptr, ptr, ptr, ptr, ptr, ptr, ptr, ptr, ptr, ptr, ptr, ptr, ptr }

@ops = internal global ptr null, align 8
@.str.17 = private unnamed_addr constant [32 x i8] c"%s: pthread_rwlock_unlock(): %m\00", align 1
@.str.19 = private unnamed_addr constant [32 x i8] c"%s: pthread_rwlock_rdlock(): %m\00", align 1
@__func__.auth_g_thread_config = private unnamed_addr constant [21 x i8] c"auth_g_thread_config\00", align 1
@context_lock = internal global { { i32, i32, i32, i32, i32, i32, i32, i32, i8, [7 x i8], i64, i32, [4 x i8] } } zeroinitializer, align 8

; Function Attrs: nounwind uwtable
define dso_local i32 @auth_g_thread_config(ptr noundef %0, ptr noundef %1) #0 {
  %3 = alloca ptr, align 8
  %4 = alloca ptr, align 8
  %5 = alloca i32, align 4
  %6 = alloca i32, align 4
  %7 = alloca i32, align 4
  store ptr %0, ptr %3, align 8
  store ptr %1, ptr %4, align 8
  call void @llvm.lifetime.start.p0(i64 4, ptr %5) #6
  store i32 0, ptr %5, align 4
  br label %8

8:                                                ; preds = %2
  call void @llvm.lifetime.start.p0(i64 4, ptr %6) #6
  %9 = call i32 @pthread_rwlock_rdlock(ptr noundef @context_lock) #6
  store i32 %9, ptr %6, align 4
  %10 = load i32, ptr %6, align 4
  %11 = icmp ne i32 %10, 0
  br i1 %11, label %12, label %15

12:                                               ; preds = %8
  %13 = load i32, ptr %6, align 4
  %14 = call ptr @__errno_location() #8
  store i32 %13, ptr %14, align 4
  call void (ptr, ...) @fatal_abort(ptr noundef @.str.19, ptr noundef @__func__.auth_g_thread_config) #7
  unreachable

15:                                               ; preds = %8
  call void @llvm.lifetime.end.p0(i64 4, ptr %6) #6
  br label %16

16:                                               ; preds = %15
  br label %17

17:                                               ; preds = %16
  %18 = load ptr, ptr @ops, align 8
  %19 = getelementptr inbounds %struct.auth_ops_t, ptr %18, i64 0
  %20 = getelementptr inbounds nuw %struct.auth_ops_t, ptr %19, i32 0, i32 12
  %21 = load ptr, ptr %20, align 8
  %22 = load ptr, ptr %3, align 8
  %23 = load ptr, ptr %4, align 8
  %24 = call i32 %21(ptr noundef %22, ptr noundef %23)
  store i32 %24, ptr %5, align 4
  br label %25

25:                                               ; preds = %17
  call void @llvm.lifetime.start.p0(i64 4, ptr %7) #6
  %26 = call i32 @pthread_rwlock_unlock(ptr noundef @context_lock) #6
  store i32 %26, ptr %7, align 4
  %27 = load i32, ptr %7, align 4
  %28 = icmp ne i32 %27, 0
  br i1 %28, label %29, label %32

29:                                               ; preds = %25
  %30 = load i32, ptr %7, align 4
  %31 = call ptr @__errno_location() #8
  store i32 %30, ptr %31, align 4
  call void (ptr, ...) @fatal_abort(ptr noundef @.str.17, ptr noundef @__func__.auth_g_thread_config) #7
  unreachable

32:                                               ; preds = %25
  call void @llvm.lifetime.end.p0(i64 4, ptr %7) #6
  br label %33

33:                                               ; preds = %32
  br label %34

34:                                               ; preds = %33
  %35 = load i32, ptr %5, align 4
  call void @llvm.lifetime.end.p0(i64 4, ptr %5) #6
  ret i32 %35
}