; Function Attrs: nounwind uwtable
define dso_local i32 @auth_g_thread_config(ptr noundef %0, ptr noundef %1) local_unnamed_addr #2 {
  %3 = tail call i32 @pthread_rwlock_rdlock(ptr noundef nonnull @context_lock) #12
  %.not = icmp eq i32 %3, 0
  br i1 %.not, label %6, label %4

4:                                                ; preds = %2
  %5 = tail call ptr @__errno_location() #13
  store i32 %3, ptr %5, align 4
  tail call void (ptr, ...) @fatal_abort(ptr noundef nonnull @.str.19, ptr noundef nonnull @__func__.auth_g_thread_config) #11
  unreachable

6:                                                ; preds = %2
  %7 = load ptr, ptr @ops, align 8
  %8 = getelementptr inbounds nuw i8, ptr %7, i64 96
  %9 = load ptr, ptr %8, align 8
  %10 = tail call i32 %9(ptr noundef %0, ptr noundef %1) #12
  %11 = tail call i32 @pthread_rwlock_unlock(ptr noundef nonnull @context_lock) #12
  %.not7 = icmp eq i32 %11, 0
  br i1 %.not7, label %14, label %12

12:                                               ; preds = %6
  %13 = tail call ptr @__errno_location() #13
  store i32 %11, ptr %13, align 4
  tail call void (ptr, ...) @fatal_abort(ptr noundef nonnull @.str.17, ptr noundef nonnull @__func__.auth_g_thread_config) #11
  unreachable

14:                                               ; preds = %6
  ret i32 %10
}